; ModuleID = '2/386.c'
source_filename = "2/386.c"
target datalayout = "e-m:e-p270:32:32-p271:32:32-p272:64:64-i64:64-f80:128-n8:16:32:64-S128"
target triple = "x86_64-pc-linux-gnu"

%struct.book = type { i32, [27 x i8] }

@.str = private unnamed_addr constant [3 x i8] c"%d\00", align 1
@.str.1 = private unnamed_addr constant [2 x i8] c"\0A\00", align 1
@.str.2 = private unnamed_addr constant [4 x i8] c"%d \00", align 1
@.str.3 = private unnamed_addr constant [3 x i8] c"%s\00", align 1
@.str.4 = private unnamed_addr constant [6 x i8] c"%c\0A%d\00", align 1
@.str.5 = private unnamed_addr constant [4 x i8] c"\0A%d\00", align 1

; Function Attrs: noinline nounwind uwtable
define dso_local i32 @main() #0 {
  %1 = alloca i32, align 4
  %2 = alloca [1000 x %struct.book], align 16
  %3 = alloca i32, align 4
  %4 = alloca i32, align 4
  %5 = alloca i32, align 4
  %6 = alloca i32, align 4
  %7 = alloca i32, align 4
  %8 = alloca [26 x i32], align 16
  %9 = alloca i32, align 4
  %10 = alloca i32, align 4
  store i32 0, i32* %1, align 4
  %11 = call i32 (i8*, ...) @__isoc99_scanf(i8* getelementptr inbounds ([3 x i8], [3 x i8]* @.str, i64 0, i64 0), i32* %5)
  %12 = call i32 (i8*, ...) @printf(i8* getelementptr inbounds ([2 x i8], [2 x i8]* @.str.1, i64 0, i64 0))
  store i32 0, i32* %3, align 4
  br label %13

13:                                               ; preds = %29, %0
  %14 = load i32, i32* %3, align 4
  %15 = load i32, i32* %5, align 4
  %16 = icmp slt i32 %14, %15
  br i1 %16, label %17, label %32

17:                                               ; preds = %13
  %18 = load i32, i32* %3, align 4
  %19 = sext i32 %18 to i64
  %20 = getelementptr inbounds [1000 x %struct.book], [1000 x %struct.book]* %2, i64 0, i64 %19
  %21 = getelementptr inbounds %struct.book, %struct.book* %20, i32 0, i32 0
  %22 = call i32 (i8*, ...) @__isoc99_scanf(i8* getelementptr inbounds ([4 x i8], [4 x i8]* @.str.2, i64 0, i64 0), i32* %21)
  %23 = load i32, i32* %3, align 4
  %24 = sext i32 %23 to i64
  %25 = getelementptr inbounds [1000 x %struct.book], [1000 x %struct.book]* %2, i64 0, i64 %24
  %26 = getelementptr inbounds %struct.book, %struct.book* %25, i32 0, i32 1
  %27 = getelementptr inbounds [27 x i8], [27 x i8]* %26, i64 0, i64 0
  %28 = call i32 (i8*, ...) @__isoc99_scanf(i8* getelementptr inbounds ([3 x i8], [3 x i8]* @.str.3, i64 0, i64 0), i8* %27)
  br label %29

29:                                               ; preds = %17
  %30 = load i32, i32* %3, align 4
  %31 = add nsw i32 %30, 1
  store i32 %31, i32* %3, align 4
  br label %13

32:                                               ; preds = %13
  %33 = bitcast [26 x i32]* %8 to i8*
  call void @llvm.memset.p0i8.i64(i8* align 16 %33, i8 0, i64 104, i1 false)
  store i32 0, i32* %3, align 4
  br label %34

34:                                               ; preds = %70, %32
  %35 = load i32, i32* %3, align 4
  %36 = load i32, i32* %5, align 4
  %37 = icmp slt i32 %35, %36
  br i1 %37, label %38, label %73

38:                                               ; preds = %34
  %39 = load i32, i32* %3, align 4
  %40 = sext i32 %39 to i64
  %41 = getelementptr inbounds [1000 x %struct.book], [1000 x %struct.book]* %2, i64 0, i64 %40
  %42 = getelementptr inbounds %struct.book, %struct.book* %41, i32 0, i32 1
  %43 = getelementptr inbounds [27 x i8], [27 x i8]* %42, i64 0, i64 0
  %44 = call i64 @strlen(i8* %43) #4
  %45 = trunc i64 %44 to i32
  store i32 %45, i32* %7, align 4
  store i32 0, i32* %4, align 4
  br label %46

46:                                               ; preds = %66, %38
  %47 = load i32, i32* %4, align 4
  %48 = load i32, i32* %7, align 4
  %49 = icmp slt i32 %47, %48
  br i1 %49, label %50, label %69

50:                                               ; preds = %46
  %51 = load i32, i32* %3, align 4
  %52 = sext i32 %51 to i64
  %53 = getelementptr inbounds [1000 x %struct.book], [1000 x %struct.book]* %2, i64 0, i64 %52
  %54 = getelementptr inbounds %struct.book, %struct.book* %53, i32 0, i32 1
  %55 = load i32, i32* %4, align 4
  %56 = sext i32 %55 to i64
  %57 = getelementptr inbounds [27 x i8], [27 x i8]* %54, i64 0, i64 %56
  %58 = load i8, i8* %57, align 1
  %59 = sext i8 %58 to i32
  store i32 %59, i32* %6, align 4
  %60 = load i32, i32* %6, align 4
  %61 = sub nsw i32 %60, 65
  %62 = sext i32 %61 to i64
  %63 = getelementptr inbounds [26 x i32], [26 x i32]* %8, i64 0, i64 %62
  %64 = load i32, i32* %63, align 4
  %65 = add nsw i32 %64, 1
  store i32 %65, i32* %63, align 4
  br label %66

66:                                               ; preds = %50
  %67 = load i32, i32* %4, align 4
  %68 = add nsw i32 %67, 1
  store i32 %68, i32* %4, align 4
  br label %46

69:                                               ; preds = %46
  br label %70

70:                                               ; preds = %69
  %71 = load i32, i32* %3, align 4
  %72 = add nsw i32 %71, 1
  store i32 %72, i32* %3, align 4
  br label %34

73:                                               ; preds = %34
  store i32 0, i32* %9, align 4
  store i32 0, i32* %3, align 4
  br label %74

74:                                               ; preds = %91, %73
  %75 = load i32, i32* %3, align 4
  %76 = icmp slt i32 %75, 26
  br i1 %76, label %77, label %94

77:                                               ; preds = %74
  %78 = load i32, i32* %3, align 4
  %79 = sext i32 %78 to i64
  %80 = getelementptr inbounds [26 x i32], [26 x i32]* %8, i64 0, i64 %79
  %81 = load i32, i32* %80, align 4
  %82 = load i32, i32* %9, align 4
  %83 = icmp sgt i32 %81, %82
  br i1 %83, label %84, label %90

84:                                               ; preds = %77
  %85 = load i32, i32* %3, align 4
  %86 = sext i32 %85 to i64
  %87 = getelementptr inbounds [26 x i32], [26 x i32]* %8, i64 0, i64 %86
  %88 = load i32, i32* %87, align 4
  store i32 %88, i32* %9, align 4
  %89 = load i32, i32* %3, align 4
  store i32 %89, i32* %10, align 4
  br label %90

90:                                               ; preds = %84, %77
  br label %91

91:                                               ; preds = %90
  %92 = load i32, i32* %3, align 4
  %93 = add nsw i32 %92, 1
  store i32 %93, i32* %3, align 4
  br label %74

94:                                               ; preds = %74
  %95 = load i32, i32* %10, align 4
  %96 = add nsw i32 %95, 65
  %97 = load i32, i32* %9, align 4
  %98 = call i32 (i8*, ...) @printf(i8* getelementptr inbounds ([6 x i8], [6 x i8]* @.str.4, i64 0, i64 0), i32 %96, i32 %97)
  store i32 0, i32* %3, align 4
  br label %99

99:                                               ; preds = %140, %94
  %100 = load i32, i32* %3, align 4
  %101 = load i32, i32* %5, align 4
  %102 = icmp slt i32 %100, %101
  br i1 %102, label %103, label %143

103:                                              ; preds = %99
  %104 = load i32, i32* %3, align 4
  %105 = sext i32 %104 to i64
  %106 = getelementptr inbounds [1000 x %struct.book], [1000 x %struct.book]* %2, i64 0, i64 %105
  %107 = getelementptr inbounds %struct.book, %struct.book* %106, i32 0, i32 1
  %108 = getelementptr inbounds [27 x i8], [27 x i8]* %107, i64 0, i64 0
  %109 = call i64 @strlen(i8* %108) #4
  %110 = trunc i64 %109 to i32
  store i32 %110, i32* %7, align 4
  store i32 0, i32* %4, align 4
  br label %111

111:                                              ; preds = %136, %103
  %112 = load i32, i32* %4, align 4
  %113 = load i32, i32* %7, align 4
  %114 = icmp slt i32 %112, %113
  br i1 %114, label %115, label %139

115:                                              ; preds = %111
  %116 = load i32, i32* %3, align 4
  %117 = sext i32 %116 to i64
  %118 = getelementptr inbounds [1000 x %struct.book], [1000 x %struct.book]* %2, i64 0, i64 %117
  %119 = getelementptr inbounds %struct.book, %struct.book* %118, i32 0, i32 1
  %120 = load i32, i32* %4, align 4
  %121 = sext i32 %120 to i64
  %122 = getelementptr inbounds [27 x i8], [27 x i8]* %119, i64 0, i64 %121
  %123 = load i8, i8* %122, align 1
  %124 = sext i8 %123 to i32
  %125 = load i32, i32* %10, align 4
  %126 = add nsw i32 %125, 65
  %127 = icmp eq i32 %124, %126
  br i1 %127, label %128, label %135

128:                                              ; preds = %115
  %129 = load i32, i32* %3, align 4
  %130 = sext i32 %129 to i64
  %131 = getelementptr inbounds [1000 x %struct.book], [1000 x %struct.book]* %2, i64 0, i64 %130
  %132 = getelementptr inbounds %struct.book, %struct.book* %131, i32 0, i32 0
  %133 = load i32, i32* %132, align 16
  %134 = call i32 (i8*, ...) @printf(i8* getelementptr inbounds ([4 x i8], [4 x i8]* @.str.5, i64 0, i64 0), i32 %133)
  br label %139

135:                                              ; preds = %115
  br label %136

136:                                              ; preds = %135
  %137 = load i32, i32* %4, align 4
  %138 = add nsw i32 %137, 1
  store i32 %138, i32* %4, align 4
  br label %111

139:                                              ; preds = %128, %111
  br label %140

140:                                              ; preds = %139
  %141 = load i32, i32* %3, align 4
  %142 = add nsw i32 %141, 1
  store i32 %142, i32* %3, align 4
  br label %99

143:                                              ; preds = %99
  ret i32 0
}

declare dso_local i32 @__isoc99_scanf(i8*, ...) #1

declare dso_local i32 @printf(i8*, ...) #1

; Function Attrs: argmemonly nounwind willreturn
declare void @llvm.memset.p0i8.i64(i8* nocapture writeonly, i8, i64, i1 immarg) #2

; Function Attrs: nounwind readonly
declare dso_local i64 @strlen(i8*) #3


!llvm.module.flags = !{!0}
!llvm.ident = !{!1}

!0 = !{i32 1, !"wchar_size", i32 4}
!1 = !{!"clang version 10.0.0-4ubuntu1 "}
